(dp0
S'name-16'
p1
I16
sS'name-17'
p2
I17
sS'name-14'
p3
I14
sS'name-15'
p4
I15
sS'name-12'
p5
I12
sS'name-13'
p6
I13
sS'name-10'
p7
I10
sS'name-11'
p8
I11
sS'name-18'
p9
I18
sS'name-19'
p10
I19
sS'name-8'
p11
I8
sS'name-9'
p12
I9
sS'name-4'
p13
I4
sS'name-5'
p14
I5
sS'name-6'
p15
I6
sS'name-7'
p16
I7
sS'name-0'
p17
I0
sS'name-1'
p18
I1
sS'name-2'
p19
I2
sS'name-3'
p20
I3
s.